target datalayout = "e-m:e-p270:32:32-p271:32:32-p272:64:64-i64:64-i128:128-f80:128-n8:16:32:64-S128"
target triple = "x86_64-pc-linux-gnu"

%struct.VirtIOPCIIDInfo = type { i16, i16, i16 }

@.str.8 = private unnamed_addr constant [29 x i8] c"Invalid virtio device(id %u)\00", align 1

; Function Attrs: nounwind sspstrong uwtable
define internal ptr @virtio_pci_get_id_info(i16 noundef zeroext %0) #0 {
  %2 = alloca i16, align 2
  %3 = alloca ptr, align 8
  %4 = alloca i32, align 4
  store i16 %0, ptr %2, align 2
  call void @llvm.lifetime.start.p0(i64 8, ptr %3) #13
  store ptr null, ptr %3, align 8
  call void @llvm.lifetime.start.p0(i64 4, ptr %4) #13
  store i32 0, ptr %4, align 4, !annotation !4
  store i32 0, ptr %4, align 4
  br label %5

5:                                                ; preds = %24, %1
  %6 = load i32, ptr %4, align 4
  %7 = sext i32 %6 to i64
  %8 = icmp ult i64 %7, 9
  br i1 %8, label %9, label %27

9:                                                ; preds = %5
  %10 = load i32, ptr %4, align 4
  %11 = sext i32 %10 to i64
  %12 = getelementptr inbounds [9 x %struct.VirtIOPCIIDInfo], ptr @virtio_pci_id_info, i64 0, i64 %11
  %13 = getelementptr inbounds nuw %struct.VirtIOPCIIDInfo, ptr %12, i32 0, i32 0
  %14 = load i16, ptr %13, align 2
  %15 = zext i16 %14 to i32
  %16 = load i16, ptr %2, align 2
  %17 = zext i16 %16 to i32
  %18 = icmp eq i32 %15, %17
  br i1 %18, label %19, label %23

19:                                               ; preds = %9
  %20 = load i32, ptr %4, align 4
  %21 = sext i32 %20 to i64
  %22 = getelementptr inbounds [9 x %struct.VirtIOPCIIDInfo], ptr @virtio_pci_id_info, i64 0, i64 %21
  store ptr %22, ptr %3, align 8
  br label %27

23:                                               ; preds = %9
  br label %24

24:                                               ; preds = %23
  %25 = load i32, ptr %4, align 4
  %26 = add i32 %25, 1
  store i32 %26, ptr %4, align 4
  br label %5, !llvm.loop !5

27:                                               ; preds = %19, %5
  %28 = load ptr, ptr %3, align 8
  %29 = icmp ne ptr %28, null
  br i1 %29, label %33, label %30

30:                                               ; preds = %27
  %31 = load i16, ptr %2, align 2
  %32 = zext i16 %31 to i32
  call void (ptr, ...) @error_report(ptr noundef @.str.8, i32 noundef %32)
  call void @abort() #14
  unreachable

33:                                               ; preds = %27
  %34 = load ptr, ptr %3, align 8
  call void @llvm.lifetime.end.p0(i64 4, ptr %4) #13
  call void @llvm.lifetime.end.p0(i64 8, ptr %3) #13
  ret ptr %34
}

; Function Attrs: nounwind sspstrong uwtable
define dso_local zeroext i16 @virtio_pci_get_trans_devid(i16 noundef zeroext %0) #0 {
  %2 = alloca i16, align 2
  store i16 %0, ptr %2, align 2
  %3 = load i16, ptr %2, align 2
  %4 = call ptr @virtio_pci_get_id_info(i16 noundef zeroext %3)
  %5 = getelementptr inbounds nuw %struct.VirtIOPCIIDInfo, ptr %4, i32 0, i32 1
  %6 = load i16, ptr %5, align 2
  ret i16 %6
}