; Function Attrs: nounwind sspstrong uwtable
define dso_local zeroext i16 @virtio_pci_get_trans_devid(i16 noundef zeroext %0) local_unnamed_addr #0 {
  br label %3

2:                                                ; preds = %3
  %indvars.iv.next.i = add nuw nsw i64 %indvars.iv.i, 1
  %exitcond.not.i = icmp eq i64 %indvars.iv.next.i, 9
  br i1 %exitcond.not.i, label %7, label %3, !llvm.loop !4

3:                                                ; preds = %2, %1
  %indvars.iv.i = phi i64 [ 0, %1 ], [ %indvars.iv.next.i, %2 ]
  %4 = getelementptr inbounds nuw [9 x %struct.VirtIOPCIIDInfo], ptr @virtio_pci_id_info, i64 0, i64 %indvars.iv.i
  %5 = load i16, ptr %4, align 2
  %6 = icmp eq i16 %5, %0
  br i1 %6, label %virtio_pci_get_id_info.exit, label %2

7:                                                ; preds = %2
  %8 = zext i16 %0 to i32
  tail call void (ptr, ...) @error_report(ptr noundef nonnull @.str.8, i32 noundef %8) #15
  tail call void @abort() #16
  unreachable

virtio_pci_get_id_info.exit:                      ; preds = %3
  %9 = getelementptr inbounds nuw i8, ptr %4, i64 2
  %10 = load i16, ptr %9, align 2
  ret i16 %10
}